; ModuleID = 'source-C-CXX/53/1665.cpp'
source_filename = "source-C-CXX/53/1665.cpp"
target datalayout = "e-m:e-p270:32:32-p271:32:32-p272:64:64-i64:64-f80:128-n8:16:32:64-S128"
target triple = "x86_64-pc-linux-gnu"

%"class.std::ios_base::Init" = type { i8 }
%"class.std::basic_istream" = type { i32 (...)**, i64, %"class.std::basic_ios" }
%"class.std::basic_ios" = type { %"class.std::ios_base", %"class.std::basic_ostream"*, i8, i8, %"class.std::basic_streambuf"*, %"class.std::ctype"*, %"class.std::num_put"*, %"class.std::num_get"* }
%"class.std::ios_base" = type { i32 (...)**, i64, i64, i32, i32, i32, %"struct.std::ios_base::_Callback_list"*, %"struct.std::ios_base::_Words", [8 x %"struct.std::ios_base::_Words"], i32, %"struct.std::ios_base::_Words"*, %"class.std::locale" }
%"struct.std::ios_base::_Callback_list" = type { %"struct.std::ios_base::_Callback_list"*, void (i32, %"class.std::ios_base"*, i32)*, i32, i32 }
%"struct.std::ios_base::_Words" = type { i8*, i64 }
%"class.std::locale" = type { %"class.std::locale::_Impl"* }
%"class.std::locale::_Impl" = type { i32, %"class.std::locale::facet"**, i64, %"class.std::locale::facet"**, i8** }
%"class.std::locale::facet" = type <{ i32 (...)**, i32, [4 x i8] }>
%"class.std::basic_ostream" = type { i32 (...)**, %"class.std::basic_ios" }
%"class.std::basic_streambuf" = type { i32 (...)**, i8*, i8*, i8*, i8*, i8*, i8*, %"class.std::locale" }
%"class.std::ctype" = type <{ %"class.std::locale::facet.base", [4 x i8], %struct.__locale_struct*, i8, [7 x i8], i32*, i32*, i16*, i8, [256 x i8], [256 x i8], i8, [6 x i8] }>
%"class.std::locale::facet.base" = type <{ i32 (...)**, i32 }>
%struct.__locale_struct = type { [13 x %struct.__locale_data*], i16*, i32*, i32*, [13 x i8*] }
%struct.__locale_data = type opaque
%"class.std::num_put" = type { %"class.std::locale::facet.base", [4 x i8] }
%"class.std::num_get" = type { %"class.std::locale::facet.base", [4 x i8] }

@_ZStL8__ioinit = internal global %"class.std::ios_base::Init" zeroinitializer, align 1
@__dso_handle = external hidden global i8
@_ZSt3cin = external global %"class.std::basic_istream", align 8
@_ZSt4cout = external global %"class.std::basic_ostream", align 8
@.str = private unnamed_addr constant [2 x i8] c"7\00", align 1
@llvm.global_ctors = appending global [1 x { i32, void ()*, i8* }] [{ i32, void ()*, i8* } { i32 65535, void ()* @_GLOBAL__sub_I_1665.cpp, i8* null }]

declare void @_ZNSt8ios_base4InitC1Ev(%"class.std::ios_base::Init"* nonnull align 1 dereferenceable(1)) unnamed_addr #0

; Function Attrs: nounwind
declare void @_ZNSt8ios_base4InitD1Ev(%"class.std::ios_base::Init"* nonnull align 1 dereferenceable(1)) unnamed_addr #1

; Function Attrs: nofree nounwind
declare i32 @__cxa_atexit(void (i8*)*, i8*, i8*) local_unnamed_addr #2

; Function Attrs: mustprogress norecurse sspstrong uwtable
define dso_local i32 @main() local_unnamed_addr #3 {
  %1 = alloca i32, align 4
  %2 = alloca i32, align 4
  %3 = bitcast i32* %1 to i8*
  call void @llvm.lifetime.start.p0i8(i64 4, i8* nonnull %3) #8
  %4 = bitcast i32* %2 to i8*
  call void @llvm.lifetime.start.p0i8(i64 4, i8* nonnull %4) #8
  %5 = call nonnull align 8 dereferenceable(16) %"class.std::basic_istream"* @_ZNSirsERi(%"class.std::basic_istream"* nonnull align 8 dereferenceable(16) @_ZSt3cin, i32* nonnull align 4 dereferenceable(4) %1)
  %6 = call nonnull align 8 dereferenceable(16) %"class.std::basic_istream"* @_ZNSirsERi(%"class.std::basic_istream"* nonnull align 8 dereferenceable(16) %5, i32* nonnull align 4 dereferenceable(4) %2)
  %7 = load i32, i32* %1, align 4, !tbaa !5
  %8 = icmp eq i32 %7, 2
  %9 = load i32, i32* %2, align 4
  %10 = icmp eq i32 %9, 1
  %11 = select i1 %8, i1 %10, i1 false
  br i1 %11, label %75, label %12

12:                                               ; preds = %0
  %13 = icmp slt i32 %7, 1
  br i1 %13, label %109, label %14

14:                                               ; preds = %12
  %15 = icmp ult i32 %7, 8
  br i1 %15, label %72, label %16

16:                                               ; preds = %14
  %17 = and i32 %7, -8
  %18 = or i32 %17, 1
  %19 = insertelement <4 x i32> poison, i32 %7, i32 0
  %20 = shufflevector <4 x i32> %19, <4 x i32> poison, <4 x i32> zeroinitializer
  %21 = insertelement <4 x i32> poison, i32 %7, i32 0
  %22 = shufflevector <4 x i32> %21, <4 x i32> poison, <4 x i32> zeroinitializer
  %23 = add i32 %17, -8
  %24 = lshr exact i32 %23, 3
  %25 = add nuw nsw i32 %24, 1
  %26 = and i32 %25, 7
  %27 = icmp ult i32 %23, 56
  br i1 %27, label %52, label %28

28:                                               ; preds = %16
  %29 = and i32 %25, 1073741816
  br label %30

30:                                               ; preds = %30, %28
  %31 = phi <4 x i32> [ <i32 1, i32 1, i32 1, i32 1>, %28 ], [ %48, %30 ]
  %32 = phi <4 x i32> [ <i32 1, i32 1, i32 1, i32 1>, %28 ], [ %49, %30 ]
  %33 = phi i32 [ %29, %28 ], [ %50, %30 ]
  %34 = mul <4 x i32> %31, %20
  %35 = mul <4 x i32> %32, %22
  %36 = mul <4 x i32> %34, %20
  %37 = mul <4 x i32> %35, %22
  %38 = mul <4 x i32> %36, %20
  %39 = mul <4 x i32> %37, %22
  %40 = mul <4 x i32> %38, %20
  %41 = mul <4 x i32> %39, %22
  %42 = mul <4 x i32> %40, %20
  %43 = mul <4 x i32> %41, %22
  %44 = mul <4 x i32> %42, %20
  %45 = mul <4 x i32> %43, %22
  %46 = mul <4 x i32> %44, %20
  %47 = mul <4 x i32> %45, %22
  %48 = mul <4 x i32> %46, %20
  %49 = mul <4 x i32> %47, %22
  %50 = add i32 %33, -8
  %51 = icmp eq i32 %50, 0
  br i1 %51, label %52, label %30, !llvm.loop !9

52:                                               ; preds = %30, %16
  %53 = phi <4 x i32> [ undef, %16 ], [ %48, %30 ]
  %54 = phi <4 x i32> [ undef, %16 ], [ %49, %30 ]
  %55 = phi <4 x i32> [ <i32 1, i32 1, i32 1, i32 1>, %16 ], [ %48, %30 ]
  %56 = phi <4 x i32> [ <i32 1, i32 1, i32 1, i32 1>, %16 ], [ %49, %30 ]
  %57 = icmp eq i32 %26, 0
  br i1 %57, label %66, label %58

58:                                               ; preds = %52, %58
  %59 = phi <4 x i32> [ %62, %58 ], [ %55, %52 ]
  %60 = phi <4 x i32> [ %63, %58 ], [ %56, %52 ]
  %61 = phi i32 [ %64, %58 ], [ %26, %52 ]
  %62 = mul <4 x i32> %59, %20
  %63 = mul <4 x i32> %60, %22
  %64 = add i32 %61, -1
  %65 = icmp eq i32 %64, 0
  br i1 %65, label %66, label %58, !llvm.loop !12

66:                                               ; preds = %58, %52
  %67 = phi <4 x i32> [ %53, %52 ], [ %62, %58 ]
  %68 = phi <4 x i32> [ %54, %52 ], [ %63, %58 ]
  %69 = mul <4 x i32> %68, %67
  %70 = call i32 @llvm.vector.reduce.mul.v4i32(<4 x i32> %69)
  %71 = icmp eq i32 %7, %17
  br i1 %71, label %109, label %72

72:                                               ; preds = %14, %66
  %73 = phi i32 [ 1, %14 ], [ %70, %66 ]
  %74 = phi i32 [ 1, %14 ], [ %18, %66 ]
  br label %103

75:                                               ; preds = %0
  %76 = call nonnull align 8 dereferenceable(8) %"class.std::basic_ostream"* @_ZSt16__ostream_insertIcSt11char_traitsIcEERSt13basic_ostreamIT_T0_ES6_PKS3_l(%"class.std::basic_ostream"* nonnull align 8 dereferenceable(8) @_ZSt4cout, i8* nonnull getelementptr inbounds ([2 x i8], [2 x i8]* @.str, i64 0, i64 0), i64 1)
  %77 = load i8*, i8** bitcast (%"class.std::basic_ostream"* @_ZSt4cout to i8**), align 8, !tbaa !14
  %78 = getelementptr i8, i8* %77, i64 -24
  %79 = bitcast i8* %78 to i64*
  %80 = load i64, i64* %79, align 8
  %81 = add nsw i64 %80, 240
  %82 = getelementptr inbounds i8, i8* bitcast (%"class.std::basic_ostream"* @_ZSt4cout to i8*), i64 %81
  %83 = bitcast i8* %82 to %"class.std::ctype"**
  %84 = load %"class.std::ctype"*, %"class.std::ctype"** %83, align 8, !tbaa !16
  %85 = icmp eq %"class.std::ctype"* %84, null
  br i1 %85, label %86, label %87

86:                                               ; preds = %75
  call void @_ZSt16__throw_bad_castv() #9
  unreachable

87:                                               ; preds = %75
  %88 = getelementptr inbounds %"class.std::ctype", %"class.std::ctype"* %84, i64 0, i32 8
  %89 = load i8, i8* %88, align 8, !tbaa !20
  %90 = icmp eq i8 %89, 0
  br i1 %90, label %94, label %91

91:                                               ; preds = %87
  %92 = getelementptr inbounds %"class.std::ctype", %"class.std::ctype"* %84, i64 0, i32 9, i64 10
  %93 = load i8, i8* %92, align 1, !tbaa !22
  br label %100

94:                                               ; preds = %87
  call void @_ZNKSt5ctypeIcE13_M_widen_initEv(%"class.std::ctype"* nonnull align 8 dereferenceable(570) %84)
  %95 = bitcast %"class.std::ctype"* %84 to i8 (%"class.std::ctype"*, i8)***
  %96 = load i8 (%"class.std::ctype"*, i8)**, i8 (%"class.std::ctype"*, i8)*** %95, align 8, !tbaa !14
  %97 = getelementptr inbounds i8 (%"class.std::ctype"*, i8)*, i8 (%"class.std::ctype"*, i8)** %96, i64 6
  %98 = load i8 (%"class.std::ctype"*, i8)*, i8 (%"class.std::ctype"*, i8)** %97, align 8
  %99 = call signext i8 %98(%"class.std::ctype"* nonnull align 8 dereferenceable(570) %84, i8 signext 10)
  br label %100

100:                                              ; preds = %91, %94
  %101 = phi i8 [ %93, %91 ], [ %99, %94 ]
  %102 = call nonnull align 8 dereferenceable(8) %"class.std::basic_ostream"* @_ZNSo3putEc(%"class.std::basic_ostream"* nonnull align 8 dereferenceable(8) @_ZSt4cout, i8 signext %101)
  br label %143

103:                                              ; preds = %72, %103
  %104 = phi i32 [ %106, %103 ], [ %73, %72 ]
  %105 = phi i32 [ %107, %103 ], [ %74, %72 ]
  %106 = mul nsw i32 %104, %7
  %107 = add nuw i32 %105, 1
  %108 = icmp eq i32 %105, %7
  br i1 %108, label %109, label %103, !llvm.loop !23

109:                                              ; preds = %103, %66, %12
  %110 = phi i32 [ 1, %12 ], [ %70, %66 ], [ %106, %103 ]
  %111 = add nsw i32 %7, -1
  %112 = mul nsw i32 %9, %111
  %113 = sub nsw i32 %110, %112
  %114 = call nonnull align 8 dereferenceable(8) %"class.std::basic_ostream"* @_ZNSolsEi(%"class.std::basic_ostream"* nonnull align 8 dereferenceable(8) @_ZSt4cout, i32 %113)
  %115 = bitcast %"class.std::basic_ostream"* %114 to i8**
  %116 = load i8*, i8** %115, align 8, !tbaa !14
  %117 = getelementptr i8, i8* %116, i64 -24
  %118 = bitcast i8* %117 to i64*
  %119 = load i64, i64* %118, align 8
  %120 = bitcast %"class.std::basic_ostream"* %114 to i8*
  %121 = add nsw i64 %119, 240
  %122 = getelementptr inbounds i8, i8* %120, i64 %121
  %123 = bitcast i8* %122 to %"class.std::ctype"**
  %124 = load %"class.std::ctype"*, %"class.std::ctype"** %123, align 8, !tbaa !16
  %125 = icmp eq %"class.std::ctype"* %124, null
  br i1 %125, label %126, label %127

126:                                              ; preds = %109
  call void @_ZSt16__throw_bad_castv() #9
  unreachable

127:                                              ; preds = %109
  %128 = getelementptr inbounds %"class.std::ctype", %"class.std::ctype"* %124, i64 0, i32 8
  %129 = load i8, i8* %128, align 8, !tbaa !20
  %130 = icmp eq i8 %129, 0
  br i1 %130, label %134, label %131

131:                                              ; preds = %127
  %132 = getelementptr inbounds %"class.std::ctype", %"class.std::ctype"* %124, i64 0, i32 9, i64 10
  %133 = load i8, i8* %132, align 1, !tbaa !22
  br label %140

134:                                              ; preds = %127
  call void @_ZNKSt5ctypeIcE13_M_widen_initEv(%"class.std::ctype"* nonnull align 8 dereferenceable(570) %124)
  %135 = bitcast %"class.std::ctype"* %124 to i8 (%"class.std::ctype"*, i8)***
  %136 = load i8 (%"class.std::ctype"*, i8)**, i8 (%"class.std::ctype"*, i8)*** %135, align 8, !tbaa !14
  %137 = getelementptr inbounds i8 (%"class.std::ctype"*, i8)*, i8 (%"class.std::ctype"*, i8)** %136, i64 6
  %138 = load i8 (%"class.std::ctype"*, i8)*, i8 (%"class.std::ctype"*, i8)** %137, align 8
  %139 = call signext i8 %138(%"class.std::ctype"* nonnull align 8 dereferenceable(570) %124, i8 signext 10)
  br label %140

140:                                              ; preds = %131, %134
  %141 = phi i8 [ %133, %131 ], [ %139, %134 ]
  %142 = call nonnull align 8 dereferenceable(8) %"class.std::basic_ostream"* @_ZNSo3putEc(%"class.std::basic_ostream"* nonnull align 8 dereferenceable(8) %114, i8 signext %141)
  br label %143

143:                                              ; preds = %140, %100
  %144 = phi %"class.std::basic_ostream"* [ %142, %140 ], [ %102, %100 ]
  %145 = call nonnull align 8 dereferenceable(8) %"class.std::basic_ostream"* @_ZNSo5flushEv(%"class.std::basic_ostream"* nonnull align 8 dereferenceable(8) %144)
  call void @llvm.lifetime.end.p0i8(i64 4, i8* nonnull %4) #8
  call void @llvm.lifetime.end.p0i8(i64 4, i8* nonnull %3) #8
  ret i32 0
}

; Function Attrs: argmemonly mustprogress nofree nosync nounwind willreturn
declare void @llvm.lifetime.start.p0i8(i64 immarg, i8* nocapture) #4

declare nonnull align 8 dereferenceable(16) %"class.std::basic_istream"* @_ZNSirsERi(%"class.std::basic_istream"* nonnull align 8 dereferenceable(16), i32* nonnull align 4 dereferenceable(4)) local_unnamed_addr #0

declare nonnull align 8 dereferenceable(8) %"class.std::basic_ostream"* @_ZNSolsEi(%"class.std::basic_ostream"* nonnull align 8 dereferenceable(8), i32) local_unnamed_addr #0

; Function Attrs: argmemonly mustprogress nofree nosync nounwind willreturn
declare void @llvm.lifetime.end.p0i8(i64 immarg, i8* nocapture) #4

declare nonnull align 8 dereferenceable(8) %"class.std::basic_ostream"* @_ZSt16__ostream_insertIcSt11char_traitsIcEERSt13basic_ostreamIT_T0_ES6_PKS3_l(%"class.std::basic_ostream"* nonnull align 8 dereferenceable(8), i8*, i64) local_unnamed_addr #0

declare nonnull align 8 dereferenceable(8) %"class.std::basic_ostream"* @_ZNSo3putEc(%"class.std::basic_ostream"* nonnull align 8 dereferenceable(8), i8 signext) local_unnamed_addr #0

declare nonnull align 8 dereferenceable(8) %"class.std::basic_ostream"* @_ZNSo5flushEv(%"class.std::basic_ostream"* nonnull align 8 dereferenceable(8)) local_unnamed_addr #0

; Function Attrs: noreturn
declare void @_ZSt16__throw_bad_castv() local_unnamed_addr #5

declare void @_ZNKSt5ctypeIcE13_M_widen_initEv(%"class.std::ctype"* nonnull align 8 dereferenceable(570)) local_unnamed_addr #0

; Function Attrs: sspstrong uwtable
define internal void @_GLOBAL__sub_I_1665.cpp() #6 section ".text.startup" {
  tail call void @_ZNSt8ios_base4InitC1Ev(%"class.std::ios_base::Init"* nonnull align 1 dereferenceable(1) @_ZStL8__ioinit)
  %1 = tail call i32 @__cxa_atexit(void (i8*)* bitcast (void (%"class.std::ios_base::Init"*)* @_ZNSt8ios_base4InitD1Ev to void (i8*)*), i8* getelementptr inbounds (%"class.std::ios_base::Init", %"class.std::ios_base::Init"* @_ZStL8__ioinit, i64 0, i32 0), i8* nonnull @__dso_handle) #8
  ret void
}

; Function Attrs: nofree nosync nounwind readnone willreturn
declare i32 @llvm.vector.reduce.mul.v4i32(<4 x i32>) #7


!llvm.module.flags = !{!0, !1, !2, !3}
!llvm.ident = !{!4}

!0 = !{i32 1, !"wchar_size", i32 4}
!1 = !{i32 7, !"PIC Level", i32 2}
!2 = !{i32 7, !"PIE Level", i32 2}
!3 = !{i32 7, !"uwtable", i32 1}
!4 = !{!"clang version 13.0.0"}
!5 = !{!6, !6, i64 0}
!6 = !{!"int", !7, i64 0}
!7 = !{!"omnipotent char", !8, i64 0}
!8 = !{!"Simple C++ TBAA"}
!9 = distinct !{!9, !10, !11}
!10 = !{!"llvm.loop.mustprogress"}
!11 = !{!"llvm.loop.isvectorized", i32 1}
!12 = distinct !{!12, !13}
!13 = !{!"llvm.loop.unroll.disable"}
!14 = !{!15, !15, i64 0}
!15 = !{!"vtable pointer", !8, i64 0}
!16 = !{!17, !18, i64 240}
!17 = !{!"_ZTSSt9basic_iosIcSt11char_traitsIcEE", !18, i64 216, !7, i64 224, !19, i64 225, !18, i64 232, !18, i64 240, !18, i64 248, !18, i64 256}
!18 = !{!"any pointer", !7, i64 0}
!19 = !{!"bool", !7, i64 0}
!20 = !{!21, !7, i64 56}
!21 = !{!"_ZTSSt5ctypeIcE", !18, i64 16, !19, i64 24, !18, i64 32, !18, i64 40, !18, i64 48, !7, i64 56, !7, i64 57, !7, i64 313, !7, i64 569}
!22 = !{!7, !7, i64 0}
!23 = distinct !{!23, !10, !24, !11}
!24 = !{!"llvm.loop.unroll.runtime.disable"}
